; Function Attrs: mustprogress uwtable
define void @_ZNK6casadi12SparsityCast13get_transposeEv(ptr dead_on_unwind noalias writable sret(%"class.casadi::MX") align 8 %0, ptr noundef nonnull align 8 dereferenceable(64) %1) unnamed_addr #3 align 2 personality ptr @__gxx_personality_v0 {
  %3 = alloca %"class.casadi::Sparsity", align 8
  %4 = getelementptr inbounds i8, ptr %1, i64 56
  %5 = tail call noundef zeroext i1 @_ZNK6casadi8Sparsity9is_vectorEv(ptr noundef nonnull align 8 dereferenceable(8) %4)
  br i1 %5, label %6, label %19

6:                                                ; preds = %2
  %7 = getelementptr inbounds i8, ptr %1, i64 32
  %8 = getelementptr inbounds i8, ptr %1, i64 40
  %9 = load ptr, ptr %8, align 8
  %10 = load ptr, ptr %7, align 8
  %.not.i.i.i.not = icmp eq ptr %9, %10
  br i1 %.not.i.i.i.not, label %11, label %_ZNK6casadi6MXNode3depEx.exit

11:                                               ; preds = %6
  tail call void (ptr, ...) @_ZSt24__throw_out_of_range_fmtPKcz(ptr noundef nonnull @.str.14, i64 noundef 0, i64 noundef 0) #14
  unreachable

_ZNK6casadi6MXNode3depEx.exit:                    ; preds = %6
  %12 = tail call noundef ptr @_ZNK6casadi2MXptEv(ptr noundef nonnull align 8 dereferenceable(8) %10)
  call void @_ZNK6casadi8Sparsity1TEv(ptr dead_on_unwind nonnull writable sret(%"class.casadi::Sparsity") align 8 %3, ptr noundef nonnull align 8 dereferenceable(8) %4)
  %13 = load ptr, ptr %12, align 8
  %14 = getelementptr inbounds i8, ptr %13, i64 528
  %15 = load ptr, ptr %14, align 8
  invoke void %15(ptr dead_on_unwind writable sret(%"class.casadi::MX") align 8 %0, ptr noundef nonnull align 8 dereferenceable(64) %12, ptr noundef nonnull align 8 dereferenceable(8) %3)
          to label %16 unwind label %17

16:                                               ; preds = %_ZNK6casadi6MXNode3depEx.exit
  call void @_ZN6casadi12SharedObjectD2Ev(ptr noundef nonnull align 8 dereferenceable(8) %3) #13
  br label %20

17:                                               ; preds = %_ZNK6casadi6MXNode3depEx.exit
  %18 = landingpad { ptr, i32 }
          cleanup
  call void @_ZN6casadi12SharedObjectD2Ev(ptr noundef nonnull align 8 dereferenceable(8) %3) #13
  resume { ptr, i32 } %18

19:                                               ; preds = %2
  tail call void @_ZNK6casadi6MXNode13get_transposeEv(ptr dead_on_unwind writable sret(%"class.casadi::MX") align 8 %0, ptr noundef nonnull align 8 dereferenceable(64) %1)
  br label %20

20:                                               ; preds = %19, %16
  ret void
}